Certificate:
    Data:
        Version: 3 (0x2)
        Serial Number: 998693573 (0x3b86dac5)
        Signature Algorithm: sha1WithRSAEncryption
        Issuer: CN = trt12.jus.br
        Validity
            Not Before: Nov 13 15:01:56 2018 GMT
            Not After : Nov 13 15:01:56 2025 GMT
        Subject: CN = trt12.jus.br
        Subject Public Key Info:
            Public Key Algorithm: rsaEncryption
                Public-Key: (2048 bit)
                Modulus:
                    00:97:31:4e:e1:c7:0a:80:08:b4:d7:ba:c5:04:3d:
                    cf:8d:36:7d:70:98:fb:95:40:b3:42:8a:42:2c:ad:
                    b1:15:54:d1:d3:be:b0:46:97:10:02:3a:31:72:68:
                    73:97:d6:da:ca:36:1f:5d:81:87:a4:0d:32:55:eb:
                    50:9b:c9:ac:6c:6b:b5:dd:3d:cc:0d:07:54:f0:3d:
                    a6:72:db:62:c4:bc:f8:86:f4:72:93:af:34:a8:93:
                    dc:b9:9f:82:13:55:d2:a2:f7:0d:03:14:12:17:c5:
                    aa:4b:ff:91:1c:1d:ce:ec:18:99:3c:77:c3:6a:36:
                    2c:80:43:b2:15:1b:40:ef:7b:cb:4f:5e:a9:fe:ef:
                    15:3b:11:b3:2e:1a:92:11:32:e6:dc:e0:52:1c:1f:
                    2f:b3:df:7e:b1:35:4a:ac:15:8b:23:06:f9:eb:ec:
                    b1:b0:34:02:b0:f4:71:50:6a:00:8b:b2:a3:ff:2a:
                    21:de:3c:90:67:99:c3:23:6e:b6:86:21:34:a8:e9:
                    ab:8b:31:2b:19:68:c1:23:c8:86:fb:be:61:6f:b5:
                    74:3b:c8:fb:bd:bd:56:f2:5f:6b:d8:6e:6e:27:eb:
                    26:5b:a7:1a:48:f2:07:85:a5:e1:8b:93:6a:58:a4:
                    13:b8:08:e8:83:08:7f:f8:51:16:9c:c9:ac:d9:24:
                    64:29
                Exponent: 65537 (0x10001)
        X509v3 extensions:
            X509v3 Basic Constraints: critical
                CA:TRUE
            X509v3 Key Usage: 
                Digital Signature, Certificate Sign, CRL Sign
    Signature Algorithm: sha1WithRSAEncryption
    Signature Value:
        36:f4:55:50:60:53:fa:83:c4:f2:e2:69:49:be:57:40:53:49:
        6f:83:2b:6d:93:70:63:37:9d:5d:37:54:41:da:ce:24:82:86:
        e4:80:de:43:32:6a:9f:e6:d8:04:5a:b4:93:d0:40:8f:b0:7a:
        a2:c5:e2:02:54:c6:d2:b7:6a:cd:c1:d4:05:dc:e1:29:23:f1:
        38:79:37:02:c6:cc:42:97:aa:b5:ce:ea:51:08:03:26:8f:c5:
        5a:12:90:60:05:8d:27:85:7f:77:98:2c:5d:1d:5b:ce:c5:af:
        41:27:32:83:c0:d6:14:77:e3:a4:13:f4:e7:83:35:d5:73:cf:
        d4:b4:09:c2:0e:79:7f:4b:99:26:8d:51:e0:52:53:13:14:df:
        68:01:84:20:ab:f7:b3:76:86:f9:3a:c1:c4:89:df:02:f2:08:
        0b:64:23:88:1e:d8:97:60:c3:d0:d1:53:4d:4f:23:c5:7f:90:
        72:b9:89:e3:98:cd:7b:f5:27:3d:3e:65:e3:9f:29:de:59:12:
        51:82:06:a6:87:15:e4:2a:2b:25:b8:97:2e:29:4d:a7:63:9a:
        5b:c1:3a:f2:e6:fb:52:ac:29:af:ec:93:b7:2d:eb:e6:43:70:
        a6:0a:9b:64:db:9a:4f:4b:b2:b2:02:0d:0f:33:e3:f0:a6:2d:
        bc:60:a9:0d
-----BEGIN CERTIFICATE-----
MIICzDCCAbSgAwIBAgIEO4baxTANBgkqhkiG9w0BAQUFADAXMRUwEwYDVQQDEwx0
cnQxMi5qdXMuYnIwHhcNMTgxMTEzMTUwMTU2WhcNMjUxMTEzMTUwMTU2WjAXMRUw
EwYDVQQDEwx0cnQxMi5qdXMuYnIwggEiMA0GCSqGSIb3DQEBAQUAA4IBDwAwggEK
AoIBAQCXMU7hxwqACLTXusUEPc+NNn1wmPuVQLNCikIsrbEVVNHTvrBGlxACOjFy
aHOX1trKNh9dgYekDTJV61Cbyaxsa7XdPcwNB1TwPaZy22LEvPiG9HKTrzSok9y5
n4ITVdKi9w0DFBIXxapL/5EcHc7sGJk8d8NqNiyAQ7IVG0Dve8tPXqn+7xU7EbMu
GpIRMubc4FIcHy+z336xNUqsFYsjBvnr7LGwNAKw9HFQagCLsqP/KiHePJBnmcMj
braGITSo6auLMSsZaMEjyIb7vmFvtXQ7yPu9vVbyX2vYbm4n6yZbpxpI8geFpeGL
k2pYpBO4COiDCH/4URacyazZJGQpAgMBAAGjIDAeMA8GA1UdEwEB/wQFMAMBAf8w
CwYDVR0PBAQDAgGGMA0GCSqGSIb3DQEBBQUAA4IBAQA29FVQYFP6g8Ty4mlJvldA
U0lvgyttk3BjN51dN1RB2s4kgobkgN5DMmqf5tgEWrST0ECPsHqixeICVMbSt2rN
wdQF3OEpI/E4eTcCxsxCl6q1zupRCAMmj8VaEpBgBY0nhX93mCxdHVvOxa9BJzKD
wNYUd+OkE/TngzXVc8/UtAnCDnl/S5kmjVHgUlMTFN9oAYQgq/ezdob5OsHEid8C
8ggLZCOIHtiXYMPQ0VNNTyPFf5ByuYnjmM179Sc9PmXjnyneWRJRggamhxXkKisl
uJcuKU2nY5pbwTry5vtSrCmv7JO3LevmQ3CmCptk25pPS7KyAg0PM+Pwpi28YKkN
-----END CERTIFICATE-----
